Certificate:
    Data:
        Version: 3 (0x2)
        Serial Number: 3 (0x3)
    Signature Algorithm: ecdsa-with-SHA512
        Issuer: O=Bitfinex IT-Security, OU=Network Security Administration, CN=services.bitfinex.com
        Validity
            Not Before: Jun 28 17:07:13 2017 GMT
            Not After : Jun 28 17:07:13 2018 GMT
        Subject: C=UK, ST=London, L=London, O=Bitfinex , OU=Sec, CN=127.0.0.1
        Subject Public Key Info:
            Public Key Algorithm: id-ecPublicKey
                Public-Key: (384 bit)
                pub:
                    04:42:ae:26:f0:74:1a:88:c1:c1:65:4e:eb:2c:cb:
                    a0:5f:d1:21:9d:0a:de:03:c0:d6:c2:98:2a:a9:5c:
                    10:7b:47:c9:1b:fe:ee:21:a0:3b:fa:15:9f:99:2e:
                    01:46:57:d9:a0:4e:9d:5e:15:dc:d2:87:97:b7:df:
                    20:cd:1c:19:a4:f8:ca:f7:d7:88:9f:5c:b5:dc:65:
                    27:2d:f3:e1:7a:47:71:8c:4b:e0:58:2c:34:ec:2b:
                    98:78:b1:06:45:c1:85
                ASN1 OID: secp384r1
                NIST CURVE: P-384
        X509v3 extensions:
            X509v3 Basic Constraints: 
                CA:FALSE
            Netscape Cert Type: 
                SSL Server
            X509v3 Key Usage: 
                Digital Signature, Key Encipherment
            X509v3 Extended Key Usage: 
                TLS Web Server Authentication, Netscape Server Gated Crypto, Microsoft Server Gated Crypto
            Netscape Comment: 
                OpenSSL Certificate for SSL Web Server
    Signature Algorithm: ecdsa-with-SHA512
         30:66:02:31:00:ba:0f:09:d2:11:d7:e3:44:1e:42:9b:e7:a9:
         cc:fd:4e:eb:c6:f7:ac:2d:02:68:aa:55:26:04:f6:fe:64:2a:
         b8:1d:2c:15:9b:7f:8c:2b:b2:87:75:65:2f:87:bc:a8:f3:02:
         31:00:ef:6e:98:53:64:d0:4f:22:4e:b5:db:8f:64:d8:e2:c7:
         32:a8:0c:46:36:df:6d:7d:23:6f:8b:9f:d4:e0:36:2c:d6:de:
         75:46:8e:29:27:3b:a4:48:2d:86:f2:df:a9:06
-----BEGIN CERTIFICATE-----
MIICjTCCAhKgAwIBAgIBAzAKBggqhkjOPQQDBDBpMR0wGwYDVQQKExRCaXRmaW5l
eCBJVC1TZWN1cml0eTEoMCYGA1UECxMfTmV0d29yayBTZWN1cml0eSBBZG1pbmlz
dHJhdGlvbjEeMBwGA1UEAxMVc2VydmljZXMuYml0ZmluZXguY29tMB4XDTE3MDYy
ODE3MDcxM1oXDTE4MDYyODE3MDcxM1owZTELMAkGA1UEBhMCVUsxDzANBgNVBAgM
BkxvbmRvbjEPMA0GA1UEBwwGTG9uZG9uMRIwEAYDVQQKDAlCaXRmaW5leCAxDDAK
BgNVBAsMA1NlYzESMBAGA1UEAwwJMTI3LjAuMC4xMHYwEAYHKoZIzj0CAQYFK4EE
ACIDYgAEQq4m8HQaiMHBZU7rLMugX9EhnQreA8DWwpgqqVwQe0fJG/7uIaA7+hWf
mS4BRlfZoE6dXhXc0oeXt98gzRwZpPjK99eIn1y13GUnLfPhekdxjEvgWCw07CuY
eLEGRcGFo4GRMIGOMAkGA1UdEwQCMAAwEQYJYIZIAYb4QgEBBAQDAgZAMAsGA1Ud
DwQEAwIFoDAqBgNVHSUEIzAhBggrBgEFBQcDAQYJYIZIAYb4QgQBBgorBgEEAYI3
CgMDMDUGCWCGSAGG+EIBDQQoFiZPcGVuU1NMIENlcnRpZmljYXRlIGZvciBTU0wg
V2ViIFNlcnZlcjAKBggqhkjOPQQDBANpADBmAjEAug8J0hHX40QeQpvnqcz9TuvG
96wtAmiqVSYE9v5kKrgdLBWbf4wrsod1ZS+HvKjzAjEA726YU2TQTyJOtduPZNji
xzKoDEY23219I2+Ln9TgNizW3nVGjiknO6RILYby36kG
-----END CERTIFICATE-----
-----BEGIN CERTIFICATE-----
MIICgjCCAgigAwIBAgIJAPcoojzgEWGUMAoGCCqGSM49BAMEMGkxHTAbBgNVBAoT
FEJpdGZpbmV4IElULVNlY3VyaXR5MSgwJgYDVQQLEx9OZXR3b3JrIFNlY3VyaXR5
IEFkbWluaXN0cmF0aW9uMR4wHAYDVQQDExVzZXJ2aWNlcy5iaXRmaW5leC5jb20w
HhcNMTcwNjI3MTAxMTA2WhcNMjcwNjI3MTAxMTA2WjBpMR0wGwYDVQQKExRCaXRm
aW5leCBJVC1TZWN1cml0eTEoMCYGA1UECxMfTmV0d29yayBTZWN1cml0eSBBZG1p
bmlzdHJhdGlvbjEeMBwGA1UEAxMVc2VydmljZXMuYml0ZmluZXguY29tMHYwEAYH
KoZIzj0CAQYFK4EEACIDYgAE0JRoT7YNBqrsYWnGARooNcuqL429CTUCRFsGW6S7
um0hOfxLG/MrXVuPB+WdcCCKXg4Ak/0p7rSt2ngAzKtT/0hD8l8mW+WUihJ9L4XJ
xy74ZzNDB3Uz3WZoRt04G9xfo3wwejASBgNVHRMBAf8ECDAGAQH/AgEAMBEGCWCG
SAGG+EIBAQQEAwICBDALBgNVHQ8EBAMCAQYwHQYDVR0lBBYwFAYIKwYBBQUHAwEG
CCsGAQUFBwMCMCUGCWCGSAGG+EIBDQQYFhZPcGVuU1NMIENBIENlcnRpZmljYXRl
MAoGCCqGSM49BAMEA2gAMGUCMH0wX/k7exN6i2XhpBTscdOKMGXN5y+a5w1URbE0
6447J/JQxZJGkx/TUrQqYLgcnAIxALHzN7Y84LucOHSyt/3YW1ODqtyMNkwP5efA
kVnB088rp2UIYDX5Owq9VVbympI+RA==
-----END CERTIFICATE-----
