Certificate:
    Data:
        Version: 3 (0x2)
        Serial Number: 2 (0x2)
    Signature Algorithm: ecdsa-with-SHA512
        Issuer: O=Bitfinex IT-Security, OU=Network Security Administration, CN=services.bitfinex.com
        Validity
            Not Before: Jun 27 16:43:47 2017 GMT
            Not After : Jun 27 16:43:47 2018 GMT
        Subject: C=AU, ST=Some-State, O=Internet Widgits Pty Ltd, CN=client1
        Subject Public Key Info:
            Public Key Algorithm: id-ecPublicKey
                Public-Key: (384 bit)
                pub:
                    04:9a:67:e0:ab:c5:76:45:c1:ef:c9:7c:58:bc:88:
                    ab:1f:c3:9c:7a:d3:b6:58:6e:be:8f:da:d2:47:65:
                    85:c6:c5:ac:f7:5b:f0:e5:2d:06:29:f8:3a:8e:4c:
                    c9:21:21:d3:4c:f9:c9:d2:68:9a:2f:b2:54:4e:3f:
                    c0:1c:05:c6:b4:de:eb:31:13:f5:33:5e:3e:14:7d:
                    48:37:72:85:83:b3:1b:9d:7c:f3:3f:0b:f3:8f:87:
                    ac:b4:e6:46:74:65:20
                ASN1 OID: secp384r1
                NIST CURVE: P-384
        X509v3 extensions:
            X509v3 Basic Constraints: 
                CA:FALSE
            Netscape Cert Type: 
                SSL Client
            X509v3 Key Usage: 
                Digital Signature, Key Encipherment
            X509v3 Extended Key Usage: 
                TLS Web Client Authentication
            Netscape Comment: 
                OpenSSL Certificate for SSL Client
    Signature Algorithm: ecdsa-with-SHA512
         30:64:02:30:2e:7b:9f:64:66:f2:b5:ea:47:08:69:c0:a2:cb:
         6b:a2:e7:fa:db:43:81:af:2c:7a:75:dc:3b:1f:1e:4a:6f:bb:
         c7:83:96:7e:ea:33:25:d3:e7:45:f6:35:0f:ad:5b:25:02:30:
         52:29:69:b6:92:7f:73:8a:c9:e4:76:59:e7:0b:3d:34:6b:c0:
         de:7c:63:4c:a4:ca:54:f7:87:c3:37:d6:df:5f:4b:82:3e:67:
         7d:7a:81:d5:ff:f6:90:7b:ea:99:af:86
-----BEGIN CERTIFICATE-----
MIICYDCCAeegAwIBAgIBAjAKBggqhkjOPQQDBDBpMR0wGwYDVQQKExRCaXRmaW5l
eCBJVC1TZWN1cml0eTEoMCYGA1UECxMfTmV0d29yayBTZWN1cml0eSBBZG1pbmlz
dHJhdGlvbjEeMBwGA1UEAxMVc2VydmljZXMuYml0ZmluZXguY29tMB4XDTE3MDYy
NzE2NDM0N1oXDTE4MDYyNzE2NDM0N1owVzELMAkGA1UEBhMCQVUxEzARBgNVBAgM
ClNvbWUtU3RhdGUxITAfBgNVBAoMGEludGVybmV0IFdpZGdpdHMgUHR5IEx0ZDEQ
MA4GA1UEAwwHY2xpZW50MTB2MBAGByqGSM49AgEGBSuBBAAiA2IABJpn4KvFdkXB
78l8WLyIqx/DnHrTtlhuvo/a0kdlhcbFrPdb8OUtBin4Oo5MySEh00z5ydJomi+y
VE4/wBwFxrTe6zET9TNePhR9SDdyhYOzG5188z8L84+HrLTmRnRlIKN1MHMwCQYD
VR0TBAIwADARBglghkgBhvhCAQEEBAMCB4AwCwYDVR0PBAQDAgWgMBMGA1UdJQQM
MAoGCCsGAQUFBwMCMDEGCWCGSAGG+EIBDQQkFiJPcGVuU1NMIENlcnRpZmljYXRl
IGZvciBTU0wgQ2xpZW50MAoGCCqGSM49BAMEA2cAMGQCMC57n2Rm8rXqRwhpwKLL
a6Ln+ttDga8senXcOx8eSm+7x4OWfuozJdPnRfY1D61bJQIwUilptpJ/c4rJ5HZZ
5ws9NGvA3nxjTKTKVPeHwzfW319Lgj5nfXqB1f/2kHvqma+G
-----END CERTIFICATE-----
